target datalayout = "e-m:e-p270:32:32-p271:32:32-p272:64:64-i64:64-i128:128-f80:128-n8:16:32:64-S128"
target triple = "x86_64-pc-linux-gnu"

%struct.RBasic = type { i64, i64 }
%struct.dump_call_arg = type { i64, ptr, i32 }
%struct.w_ivar_arg = type { ptr, i64 }

@s_encoding_short = internal global i64 0, align 8
@s_ruby2_keywords_flag = internal global i64 0, align 8
@rb_cFalseClass = external global i64, align 8
@rb_cNilClass = external global i64, align 8
@rb_cTrueClass = external global i64, align 8
@rb_cInteger = external global i64, align 8
@rb_cSymbol = external global i64, align 8
@rb_cFloat = external global i64, align 8
@.str.55 = private unnamed_addr constant [50 x i8] c"instance variable 'E' on class %li\0B is not dumped\00", align 1
@.str.56 = private unnamed_addr constant [50 x i8] c"instance variable 'K' on class %li\0B is not dumped\00", align 1

; Function Attrs: inlinehint nounwind sspstrong willreturn memory(none) uwtable
define internal zeroext i1 @RB_IMMEDIATE_P(i64 noundef %0) #8 {
  %2 = alloca i64, align 8
  store i64 %0, ptr %2, align 8, !tbaa !7
  %3 = load i64, ptr %2, align 8, !tbaa !7
  %4 = and i64 %3, 7
  %5 = icmp ne i64 %4, 0
  ret i1 %5
}

; Function Attrs: inlinehint nounwind sspstrong willreturn memory(none) uwtable
define internal zeroext i1 @RB_FLONUM_P(i64 noundef %0) #8 {
  %2 = alloca i64, align 8
  store i64 %0, ptr %2, align 8, !tbaa !7
  %3 = load i64, ptr %2, align 8, !tbaa !7
  %4 = and i64 %3, 3
  %5 = icmp eq i64 %4, 2
  ret i1 %5
}

; Function Attrs: inlinehint nounwind sspstrong willreturn memory(none) uwtable
define internal zeroext i1 @RB_STATIC_SYM_P(i64 noundef %0) #8 {
  %2 = alloca i64, align 8
  %3 = alloca i64, align 8
  store i64 %0, ptr %2, align 8, !tbaa !7
  call void @llvm.lifetime.start.p0(i64 8, ptr %3) #23
  store i64 255, ptr %3, align 8, !tbaa !7
  %4 = load i64, ptr %2, align 8, !tbaa !7
  %5 = and i64 %4, 255
  %6 = icmp eq i64 %5, 12
  call void @llvm.lifetime.end.p0(i64 8, ptr %3) #23
  ret i1 %6
}

; Function Attrs: inlinehint nounwind sspstrong willreturn memory(none) uwtable
define internal zeroext i1 @RB_FIXNUM_P(i64 noundef %0) #8 {
  %2 = alloca i64, align 8
  store i64 %0, ptr %2, align 8, !tbaa !7
  %3 = load i64, ptr %2, align 8, !tbaa !7
  %4 = and i64 %3, 1
  %5 = icmp ne i64 %4, 0
  ret i1 %5
}

; Function Attrs: inlinehint nounwind sspstrong willreturn memory(read) uwtable
define internal i64 @RBASIC_CLASS(i64 noundef %0) #7 {
  %2 = alloca i64, align 8
  store i64 %0, ptr %2, align 8, !tbaa !7
  %3 = load i64, ptr %2, align 8, !tbaa !7
  %4 = inttoptr i64 %3 to ptr
  %5 = getelementptr inbounds nuw %struct.RBasic, ptr %4, i32 0, i32 1
  %6 = load i64, ptr %5, align 8, !tbaa !82
  ret i64 %6
}

; Function Attrs: inlinehint nounwind sspstrong willreturn memory(none) uwtable
define internal zeroext i1 @RB_SPECIAL_CONST_P(i64 noundef %0) #8 {
  %2 = alloca i64, align 8
  store i64 %0, ptr %2, align 8, !tbaa !7
  %3 = load i64, ptr %2, align 8, !tbaa !7
  %4 = icmp eq i64 %3, 0
  br i1 %4, label %8, label %5

5:                                                ; preds = %1
  %6 = load i64, ptr %2, align 8, !tbaa !7
  %7 = call zeroext i1 @RB_IMMEDIATE_P(i64 noundef %6) #26
  br label %8

8:                                                ; preds = %5, %1
  %9 = phi i1 [ true, %1 ], [ %7, %5 ]
  ret i1 %9
}

; Function Attrs: inlinehint nounwind sspstrong willreturn memory(read) uwtable
define internal i64 @rb_class_of(i64 noundef %0) #7 {
  %2 = alloca i64, align 8
  %3 = alloca i64, align 8
  store i64 %0, ptr %3, align 8, !tbaa !7
  %4 = load i64, ptr %3, align 8, !tbaa !7
  %5 = call zeroext i1 @RB_SPECIAL_CONST_P(i64 noundef %4) #26
  br i1 %5, label %9, label %6

6:                                                ; preds = %1
  %7 = load i64, ptr %3, align 8, !tbaa !7
  %8 = call i64 @RBASIC_CLASS(i64 noundef %7) #27
  store i64 %8, ptr %2, align 8
  br label %46

9:                                                ; preds = %1
  %10 = load i64, ptr %3, align 8, !tbaa !7
  %11 = icmp eq i64 %10, 0
  br i1 %11, label %12, label %14

12:                                               ; preds = %9
  %13 = load i64, ptr @rb_cFalseClass, align 8, !tbaa !7
  store i64 %13, ptr %2, align 8
  br label %46

14:                                               ; preds = %9
  %15 = load i64, ptr %3, align 8, !tbaa !7
  %16 = icmp eq i64 %15, 4
  br i1 %16, label %17, label %19

17:                                               ; preds = %14
  %18 = load i64, ptr @rb_cNilClass, align 8, !tbaa !7
  store i64 %18, ptr %2, align 8
  br label %46

19:                                               ; preds = %14
  %20 = load i64, ptr %3, align 8, !tbaa !7
  %21 = icmp eq i64 %20, 20
  br i1 %21, label %22, label %24

22:                                               ; preds = %19
  %23 = load i64, ptr @rb_cTrueClass, align 8, !tbaa !7
  store i64 %23, ptr %2, align 8
  br label %46

24:                                               ; preds = %19
  %25 = load i64, ptr %3, align 8, !tbaa !7
  %26 = call zeroext i1 @RB_FIXNUM_P(i64 noundef %25) #26
  br i1 %26, label %27, label %29

27:                                               ; preds = %24
  %28 = load i64, ptr @rb_cInteger, align 8, !tbaa !7
  store i64 %28, ptr %2, align 8
  br label %46

29:                                               ; preds = %24
  %30 = load i64, ptr %3, align 8, !tbaa !7
  %31 = call zeroext i1 @RB_STATIC_SYM_P(i64 noundef %30) #26
  br i1 %31, label %32, label %34

32:                                               ; preds = %29
  %33 = load i64, ptr @rb_cSymbol, align 8, !tbaa !7
  store i64 %33, ptr %2, align 8
  br label %46

34:                                               ; preds = %29
  %35 = load i64, ptr %3, align 8, !tbaa !7
  %36 = call zeroext i1 @RB_FLONUM_P(i64 noundef %35) #26
  br i1 %36, label %37, label %39

37:                                               ; preds = %34
  %38 = load i64, ptr @rb_cFloat, align 8, !tbaa !7
  store i64 %38, ptr %2, align 8
  br label %46

39:                                               ; preds = %34
  br label %40

40:                                               ; preds = %39
  br label %41

41:                                               ; preds = %40
  br label %42

42:                                               ; preds = %41
  br label %43

43:                                               ; preds = %42
  br label %44

44:                                               ; preds = %43
  br label %45

45:                                               ; preds = %44
  unreachable

46:                                               ; preds = %37, %32, %27, %22, %17, %12, %6
  %47 = load i64, ptr %2, align 8
  ret i64 %47
}

; Function Attrs: inlinehint nounwind sspstrong uwtable
define internal zeroext i1 @to_be_skipped_id(i64 noundef %0) #5 {
  %2 = alloca i1, align 1
  %3 = alloca i64, align 8
  store i64 %0, ptr %3, align 8, !tbaa !7
  %4 = load i64, ptr %3, align 8, !tbaa !7
  %5 = load i64, ptr @s_encoding_short, align 8, !tbaa !7
  %6 = icmp eq i64 %4, %5
  br i1 %6, label %7, label %8

7:                                                ; preds = %1
  store i1 true, ptr %2, align 1
  br label %23

8:                                                ; preds = %1
  %9 = load i64, ptr %3, align 8, !tbaa !7
  %10 = load i64, ptr @s_ruby2_keywords_flag, align 8, !tbaa !7
  %11 = icmp eq i64 %9, %10
  br i1 %11, label %12, label %13

12:                                               ; preds = %8
  store i1 true, ptr %2, align 1
  br label %23

13:                                               ; preds = %8
  %14 = load i64, ptr %3, align 8, !tbaa !7
  %15 = call i64 @rb_id_encoding()
  %16 = icmp eq i64 %14, %15
  br i1 %16, label %17, label %18

17:                                               ; preds = %13
  store i1 true, ptr %2, align 1
  br label %23

18:                                               ; preds = %13
  %19 = load i64, ptr %3, align 8, !tbaa !7
  %20 = call i64 @rb_id2str(i64 noundef %19)
  %21 = icmp ne i64 %20, 0
  %22 = xor i1 %21, true
  store i1 %22, ptr %2, align 1
  br label %23

23:                                               ; preds = %18, %17, %12, %7
  %24 = load i1, ptr %2, align 1
  ret i1 %24
}

; Function Attrs: nounwind sspstrong uwtable
define internal i32 @w_obj_each(i64 noundef %0, i64 noundef %1, i64 noundef %2) #0 {
  %4 = alloca i32, align 4
  %5 = alloca i64, align 8
  %6 = alloca i64, align 8
  %7 = alloca i64, align 8
  %8 = alloca ptr, align 8
  %9 = alloca ptr, align 8
  %10 = alloca i32, align 4
  store i64 %0, ptr %5, align 8, !tbaa !7
  store i64 %1, ptr %6, align 8, !tbaa !7
  store i64 %2, ptr %7, align 8, !tbaa !7
  call void @llvm.lifetime.start.p0(i64 8, ptr %8) #23
  %11 = load i64, ptr %7, align 8, !tbaa !7
  %12 = inttoptr i64 %11 to ptr
  store ptr %12, ptr %8, align 8, !tbaa !128
  call void @llvm.lifetime.start.p0(i64 8, ptr %9) #23
  %13 = load ptr, ptr %8, align 8, !tbaa !128
  %14 = getelementptr inbounds nuw %struct.w_ivar_arg, ptr %13, i32 0, i32 0
  %15 = load ptr, ptr %14, align 8, !tbaa !123
  store ptr %15, ptr %9, align 8, !tbaa !103
  %16 = load i64, ptr %5, align 8, !tbaa !7
  %17 = call zeroext i1 @to_be_skipped_id(i64 noundef %16)
  br i1 %17, label %18, label %37

18:                                               ; preds = %3
  %19 = load i64, ptr %5, align 8, !tbaa !7
  %20 = load i64, ptr @s_encoding_short, align 8, !tbaa !7
  %21 = icmp eq i64 %19, %20
  br i1 %21, label %22, label %27

22:                                               ; preds = %18
  %23 = load ptr, ptr %9, align 8, !tbaa !103
  %24 = getelementptr inbounds nuw %struct.dump_call_arg, ptr %23, i32 0, i32 0
  %25 = load i64, ptr %24, align 8, !tbaa !81
  %26 = call i64 @rb_class_of(i64 noundef %25) #27
  call void (ptr, ...) @rb_warn(ptr noundef @.str.55, i64 noundef %26) #28
  br label %27

27:                                               ; preds = %22, %18
  %28 = load i64, ptr %5, align 8, !tbaa !7
  %29 = load i64, ptr @s_ruby2_keywords_flag, align 8, !tbaa !7
  %30 = icmp eq i64 %28, %29
  br i1 %30, label %31, label %36

31:                                               ; preds = %27
  %32 = load ptr, ptr %9, align 8, !tbaa !103
  %33 = getelementptr inbounds nuw %struct.dump_call_arg, ptr %32, i32 0, i32 0
  %34 = load i64, ptr %33, align 8, !tbaa !81
  %35 = call i64 @rb_class_of(i64 noundef %34) #27
  call void (ptr, ...) @rb_warn(ptr noundef @.str.56, i64 noundef %35) #28
  br label %36

36:                                               ; preds = %31, %27
  store i32 0, ptr %4, align 4
  store i32 1, ptr %10, align 4
  br label %54

37:                                               ; preds = %3
  %38 = load ptr, ptr %8, align 8, !tbaa !128
  %39 = getelementptr inbounds nuw %struct.w_ivar_arg, ptr %38, i32 0, i32 1
  %40 = load i64, ptr %39, align 8, !tbaa !125
  %41 = add i64 %40, -1
  store i64 %41, ptr %39, align 8, !tbaa !125
  %42 = load i64, ptr %5, align 8, !tbaa !7
  %43 = call i64 @rb_id2sym(i64 noundef %42)
  %44 = load ptr, ptr %9, align 8, !tbaa !103
  %45 = getelementptr inbounds nuw %struct.dump_call_arg, ptr %44, i32 0, i32 1
  %46 = load ptr, ptr %45, align 8, !tbaa !80
  call void @w_symbol(i64 noundef %43, ptr noundef %46)
  %47 = load i64, ptr %6, align 8, !tbaa !7
  %48 = load ptr, ptr %9, align 8, !tbaa !103
  %49 = getelementptr inbounds nuw %struct.dump_call_arg, ptr %48, i32 0, i32 1
  %50 = load ptr, ptr %49, align 8, !tbaa !80
  %51 = load ptr, ptr %9, align 8, !tbaa !103
  %52 = getelementptr inbounds nuw %struct.dump_call_arg, ptr %51, i32 0, i32 2
  %53 = load i32, ptr %52, align 8, !tbaa !78
  call void @w_object(i64 noundef %47, ptr noundef %50, i32 noundef %53)
  store i32 0, ptr %4, align 4
  store i32 1, ptr %10, align 4
  br label %54

54:                                               ; preds = %37, %36
  call void @llvm.lifetime.end.p0(i64 8, ptr %9) #23
  call void @llvm.lifetime.end.p0(i64 8, ptr %8) #23
  %55 = load i32, ptr %4, align 4
  ret i32 %55
}