; Function Attrs: nounwind sspstrong uwtable
define internal noundef i32 @w_obj_each(i64 noundef %0, i64 noundef %1, i64 noundef %2) #0 {
  %4 = inttoptr i64 %2 to ptr
  %5 = load ptr, ptr %4, align 8, !tbaa !139
  %6 = load i64, ptr @s_encoding_short, align 8, !tbaa !7
  %7 = icmp eq i64 %0, %6
  %8 = load i64, ptr @s_ruby2_keywords_flag, align 8
  %9 = icmp eq i64 %0, %8
  %or.cond.i = select i1 %7, i1 true, i1 %9
  br i1 %or.cond.i, label %to_be_skipped_id.exit.thread, label %10

10:                                               ; preds = %3
  %11 = tail call i64 @rb_id_encoding() #22
  %12 = icmp eq i64 %0, %11
  br i1 %12, label %to_be_skipped_id.exit.thread, label %to_be_skipped_id.exit

to_be_skipped_id.exit:                            ; preds = %10
  %13 = tail call i64 @rb_id2str(i64 noundef %0) #22
  %.not.i = icmp eq i64 %13, 0
  br i1 %.not.i, label %to_be_skipped_id.exit.thread, label %53

to_be_skipped_id.exit.thread:                     ; preds = %10, %3, %to_be_skipped_id.exit
  %14 = load i64, ptr @s_encoding_short, align 8, !tbaa !7
  %15 = icmp eq i64 %0, %14
  br i1 %15, label %16, label %33

16:                                               ; preds = %to_be_skipped_id.exit.thread
  %17 = load i64, ptr %5, align 8, !tbaa !70
  %18 = icmp eq i64 %17, 0
  %19 = and i64 %17, 7
  %20 = icmp ne i64 %19, 0
  %21 = or i1 %18, %20
  br i1 %21, label %25, label %22

22:                                               ; preds = %16
  %23 = inttoptr i64 %17 to ptr
  %24 = getelementptr inbounds nuw i8, ptr %23, i64 8
  br label %rb_class_of.exit

25:                                               ; preds = %16
  switch i64 %17, label %28 [
    i64 0, label %rb_class_of.exit
    i64 4, label %26
    i64 20, label %27
  ]

26:                                               ; preds = %25
  br label %rb_class_of.exit

27:                                               ; preds = %25
  br label %rb_class_of.exit

28:                                               ; preds = %25
  %29 = and i64 %17, 1
  %.not.i14 = icmp eq i64 %29, 0
  br i1 %.not.i14, label %30, label %rb_class_of.exit

30:                                               ; preds = %28
  %31 = and i64 %17, 254
  %32 = icmp eq i64 %31, 12
  %spec.select.i = select i1 %32, ptr @rb_cSymbol, ptr @rb_cFloat
  br label %rb_class_of.exit

rb_class_of.exit:                                 ; preds = %22, %25, %26, %27, %28, %30
  %.0.in.i = phi ptr [ @rb_cNilClass, %26 ], [ @rb_cTrueClass, %27 ], [ %24, %22 ], [ @rb_cFalseClass, %25 ], [ @rb_cInteger, %28 ], [ %spec.select.i, %30 ]
  %.0.i13 = load i64, ptr %.0.in.i, align 8, !tbaa !7
  tail call void (ptr, ...) @rb_warn(ptr noundef nonnull @.str.55, i64 noundef %.0.i13) #26
  br label %33

33:                                               ; preds = %rb_class_of.exit, %to_be_skipped_id.exit.thread
  %34 = load i64, ptr @s_ruby2_keywords_flag, align 8, !tbaa !7
  %35 = icmp eq i64 %0, %34
  br i1 %35, label %36, label %63

36:                                               ; preds = %33
  %37 = load i64, ptr %5, align 8, !tbaa !70
  %38 = icmp eq i64 %37, 0
  %39 = and i64 %37, 7
  %40 = icmp ne i64 %39, 0
  %41 = or i1 %38, %40
  br i1 %41, label %45, label %42

42:                                               ; preds = %36
  %43 = inttoptr i64 %37 to ptr
  %44 = getelementptr inbounds nuw i8, ptr %43, i64 8
  br label %rb_class_of.exit19

45:                                               ; preds = %36
  switch i64 %37, label %48 [
    i64 0, label %rb_class_of.exit19
    i64 4, label %46
    i64 20, label %47
  ]

46:                                               ; preds = %45
  br label %rb_class_of.exit19

47:                                               ; preds = %45
  br label %rb_class_of.exit19

48:                                               ; preds = %45
  %49 = and i64 %37, 1
  %.not.i17 = icmp eq i64 %49, 0
  br i1 %.not.i17, label %50, label %rb_class_of.exit19

50:                                               ; preds = %48
  %51 = and i64 %37, 254
  %52 = icmp eq i64 %51, 12
  %spec.select.i18 = select i1 %52, ptr @rb_cSymbol, ptr @rb_cFloat
  br label %rb_class_of.exit19

rb_class_of.exit19:                               ; preds = %42, %45, %46, %47, %48, %50
  %.0.in.i15 = phi ptr [ @rb_cNilClass, %46 ], [ @rb_cTrueClass, %47 ], [ %44, %42 ], [ @rb_cFalseClass, %45 ], [ @rb_cInteger, %48 ], [ %spec.select.i18, %50 ]
  %.0.i16 = load i64, ptr %.0.in.i15, align 8, !tbaa !7
  tail call void (ptr, ...) @rb_warn(ptr noundef nonnull @.str.56, i64 noundef %.0.i16) #26
  br label %63

53:                                               ; preds = %to_be_skipped_id.exit
  %54 = getelementptr inbounds nuw i8, ptr %4, i64 8
  %55 = load i64, ptr %54, align 8, !tbaa !142
  %56 = add i64 %55, -1
  store i64 %56, ptr %54, align 8, !tbaa !142
  %57 = tail call i64 @rb_id2sym(i64 noundef %0) #22
  %58 = getelementptr inbounds nuw i8, ptr %5, i64 8
  %59 = load ptr, ptr %58, align 8, !tbaa !69
  tail call fastcc void @w_symbol(i64 noundef %57, ptr noundef %59)
  %60 = load ptr, ptr %58, align 8, !tbaa !69
  %61 = getelementptr inbounds nuw i8, ptr %5, i64 16
  %62 = load i32, ptr %61, align 8, !tbaa !65
  tail call fastcc void @w_object(i64 noundef %1, ptr noundef %60, i32 noundef %62)
  br label %63

63:                                               ; preds = %33, %rb_class_of.exit19, %53
  ret i32 0
}